target datalayout = "e-m:e-p270:32:32-p271:32:32-p272:64:64-i64:64-i128:128-f80:128-n8:16:32:64-S128"
target triple = "x86_64-pc-linux-gnu"

%struct.MBCSData = type { %struct.NewConverter, ptr, [8192 x %struct._MBCSToUFallback], i32, ptr, [1088 x i16], [64448 x i16], [64448 x i32], ptr, i32, i32, [1024 x i16], i16, i8, i8 }
%struct.NewConverter = type { ptr, ptr, ptr, ptr }
%struct._MBCSToUFallback = type { i32, i32 }

; Function Attrs: mustprogress nounwind uwtable
define dso_local signext i8 @MBCSOkForBaseFromUnicode(ptr noundef %0, ptr noundef %1, i32 noundef %2, i32 noundef %3, i8 noundef signext %4) #0 {
  %6 = alloca i8, align 1
  %7 = alloca ptr, align 8
  %8 = alloca ptr, align 8
  %9 = alloca i32, align 4
  %10 = alloca i32, align 4
  %11 = alloca i8, align 1
  store ptr %0, ptr %7, align 8, !tbaa !19
  store ptr %1, ptr %8, align 8, !tbaa !26
  store i32 %2, ptr %9, align 4, !tbaa !27
  store i32 %3, ptr %10, align 4, !tbaa !27
  store i8 %4, ptr %11, align 1, !tbaa !15
  %12 = load i8, ptr %11, align 1, !tbaa !15
  %13 = sext i8 %12 to i32
  %14 = icmp eq i32 %13, 2
  br i1 %14, label %15, label %18

15:                                               ; preds = %5
  %16 = load i32, ptr %9, align 4, !tbaa !27
  %17 = icmp eq i32 %16, 1
  br i1 %17, label %41, label %18

18:                                               ; preds = %15, %5
  %19 = load i8, ptr %11, align 1, !tbaa !15
  %20 = sext i8 %19 to i32
  %21 = icmp eq i32 %20, 1
  br i1 %21, label %22, label %28

22:                                               ; preds = %18
  %23 = load ptr, ptr %8, align 8, !tbaa !26
  %24 = getelementptr inbounds i8, ptr %23, i64 0
  %25 = load i8, ptr %24, align 1, !tbaa !15
  %26 = zext i8 %25 to i32
  %27 = icmp eq i32 %26, 0
  br i1 %27, label %41, label %28

28:                                               ; preds = %22, %18
  %29 = load i8, ptr %11, align 1, !tbaa !15
  %30 = sext i8 %29 to i32
  %31 = icmp sle i32 %30, 1
  br i1 %31, label %32, label %42

32:                                               ; preds = %28
  %33 = load i32, ptr %9, align 4, !tbaa !27
  %34 = icmp sgt i32 %33, 1
  br i1 %34, label %35, label %42

35:                                               ; preds = %32
  %36 = load ptr, ptr %8, align 8, !tbaa !26
  %37 = getelementptr inbounds i8, ptr %36, i64 0
  %38 = load i8, ptr %37, align 1, !tbaa !15
  %39 = zext i8 %38 to i32
  %40 = icmp eq i32 %39, 0
  br i1 %40, label %41, label %42

41:                                               ; preds = %35, %22, %15
  store i8 0, ptr %6, align 1
  br label %80

42:                                               ; preds = %35, %32, %28
  %43 = load ptr, ptr %7, align 8, !tbaa !19
  %44 = getelementptr inbounds nuw %struct.MBCSData, ptr %43, i32 0, i32 13
  %45 = load i8, ptr %44, align 2, !tbaa !4
  %46 = icmp ne i8 %45, 0
  br i1 %46, label %47, label %69

47:                                               ; preds = %42
  %48 = load i8, ptr %11, align 1, !tbaa !15
  %49 = sext i8 %48 to i32
  %50 = icmp sle i32 %49, 1
  br i1 %50, label %51, label %69

51:                                               ; preds = %47
  %52 = load i32, ptr %10, align 4, !tbaa !27
  %53 = load ptr, ptr %7, align 8, !tbaa !19
  %54 = getelementptr inbounds nuw %struct.MBCSData, ptr %53, i32 0, i32 12
  %55 = load i16, ptr %54, align 8, !tbaa !16
  %56 = zext i16 %55 to i32
  %57 = icmp sle i32 %52, %56
  br i1 %57, label %58, label %69

58:                                               ; preds = %51
  %59 = load ptr, ptr %8, align 8, !tbaa !26
  %60 = getelementptr inbounds i8, ptr %59, i64 0
  %61 = load i8, ptr %60, align 1, !tbaa !15
  %62 = zext i8 %61 to i32
  %63 = icmp eq i32 %62, 0
  br i1 %63, label %68, label %64

64:                                               ; preds = %58
  %65 = load i8, ptr %11, align 1, !tbaa !15
  %66 = sext i8 %65 to i32
  %67 = icmp eq i32 %66, 1
  br i1 %67, label %68, label %69

68:                                               ; preds = %64, %58
  store i8 0, ptr %6, align 1
  br label %80

69:                                               ; preds = %64, %51, %47, %42
  %70 = load ptr, ptr %7, align 8, !tbaa !19
  %71 = getelementptr inbounds nuw %struct.MBCSData, ptr %70, i32 0, i32 14
  %72 = load i8, ptr %71, align 1, !tbaa !17
  %73 = icmp ne i8 %72, 0
  br i1 %73, label %74, label %79

74:                                               ; preds = %69
  %75 = load i8, ptr %11, align 1, !tbaa !15
  %76 = sext i8 %75 to i32
  %77 = icmp ne i32 %76, 0
  br i1 %77, label %78, label %79

78:                                               ; preds = %74
  store i8 0, ptr %6, align 1
  br label %80

79:                                               ; preds = %74, %69
  store i8 1, ptr %6, align 1
  br label %80

80:                                               ; preds = %79, %78, %68, %41
  %81 = load i8, ptr %6, align 1
  ret i8 %81
}