; Function Attrs: mustprogress nofree norecurse nosync nounwind willreturn memory(argmem: read) uwtable
define dso_local signext range(i8 0, 2) i8 @MBCSOkForBaseFromUnicode(ptr noundef readonly captures(none) %0, ptr noundef readonly captures(none) %1, i32 noundef %2, i32 noundef %3, i8 noundef signext %4) local_unnamed_addr #7 {
  %6 = icmp eq i8 %4, 2
  %7 = icmp eq i32 %2, 1
  %or.cond = and i1 %7, %6
  br i1 %or.cond, label %35, label %8

8:                                                ; preds = %5
  %9 = icmp eq i8 %4, 1
  br i1 %9, label %10, label %13

10:                                               ; preds = %8
  %11 = load i8, ptr %1, align 1, !tbaa !15
  %12 = icmp eq i8 %11, 0
  br i1 %12, label %35, label %13

13:                                               ; preds = %10, %8
  %14 = icmp slt i8 %4, 2
  %15 = icmp sgt i32 %2, 1
  %or.cond3 = and i1 %15, %14
  br i1 %or.cond3, label %16, label %19

16:                                               ; preds = %13
  %17 = load i8, ptr %1, align 1, !tbaa !15
  %18 = icmp eq i8 %17, 0
  br i1 %18, label %35, label %19

19:                                               ; preds = %16, %13
  %20 = getelementptr inbounds nuw i8, ptr %0, i64 456522
  %21 = load i8, ptr %20, align 2, !tbaa !4
  %22 = icmp ne i8 %21, 0
  %or.cond6 = and i1 %14, %22
  br i1 %or.cond6, label %23, label %30

23:                                               ; preds = %19
  %24 = getelementptr inbounds nuw i8, ptr %0, i64 456520
  %25 = load i16, ptr %24, align 8, !tbaa !17
  %26 = zext i16 %25 to i32
  %.not = icmp sgt i32 %3, %26
  br i1 %.not, label %30, label %27

27:                                               ; preds = %23
  %28 = load i8, ptr %1, align 1, !tbaa !15
  %29 = icmp eq i8 %28, 0
  %or.cond9 = or i1 %9, %29
  br i1 %or.cond9, label %35, label %30

30:                                               ; preds = %27, %23, %19
  %31 = getelementptr inbounds nuw i8, ptr %0, i64 456523
  %32 = load i8, ptr %31, align 1, !tbaa !16
  %33 = icmp eq i8 %32, 0
  %34 = icmp eq i8 %4, 0
  %or.cond12.not = or i1 %34, %33
  %. = zext i1 %or.cond12.not to i8
  br label %35

35:                                               ; preds = %30, %27, %10, %16, %5
  %.0 = phi i8 [ 0, %5 ], [ 0, %16 ], [ 0, %10 ], [ 0, %27 ], [ %., %30 ]
  ret i8 %.0
}